; Function Attrs: inlinehint nounwind uwtable
define internal fastcc void @pmix_bfrops_base_tma_coord_free(ptr noundef captures(address_is_null) %0, i64 noundef %1) unnamed_addr #3 {
  %.not = icmp eq ptr %0, null
  br i1 %.not, label %8, label %.preheader

.preheader:                                       ; preds = %2
  %.not2 = icmp eq i64 %1, 0
  br i1 %.not2, label %._crit_edge, label %.lr.ph

._crit_edge:                                      ; preds = %pmix_bfrops_base_tma_coord_destruct.exit, %.preheader
  tail call void @free(ptr noundef nonnull %0) #23
  br label %8

.lr.ph:                                           ; preds = %.preheader, %pmix_bfrops_base_tma_coord_destruct.exit
  %.01 = phi i64 [ %7, %pmix_bfrops_base_tma_coord_destruct.exit ], [ 0, %.preheader ]
  %3 = getelementptr inbounds nuw %struct.pmix_coord, ptr %0, i64 %.01
  store i8 0, ptr %3, align 8, !tbaa !125
  %4 = getelementptr inbounds nuw i8, ptr %3, i64 8
  %5 = load ptr, ptr %4, align 8, !tbaa !129
  %.not.i = icmp eq ptr %5, null
  br i1 %.not.i, label %pmix_bfrops_base_tma_coord_destruct.exit, label %6

6:                                                ; preds = %.lr.ph
  tail call void @free(ptr noundef nonnull %5) #23
  tail call void @llvm.memset.p0.i64(ptr noundef nonnull align 8 dereferenceable(16) %4, i8 0, i64 16, i1 false)
  br label %pmix_bfrops_base_tma_coord_destruct.exit

pmix_bfrops_base_tma_coord_destruct.exit:         ; preds = %.lr.ph, %6
  %7 = add nuw i64 %.01, 1
  %exitcond.not = icmp eq i64 %7, %1
  br i1 %exitcond.not, label %._crit_edge, label %.lr.ph, !llvm.loop !239

8:                                                ; preds = %._crit_edge, %2
  ret void
}